; Function Attrs: nounwind uwtable
define hidden range(i32 -1, 1) i32 @ps_read_user(ptr readnone captures(none) %0, ptr noundef %1, ptr noundef writeonly captures(none) %2, i64 %3) #0 {
  %5 = alloca [1 x %struct._zval_struct], align 16
  %6 = alloca %struct._zval_struct, align 8
  call void @llvm.lifetime.start.p0(i64 16, ptr nonnull %5) #8
  call void @llvm.lifetime.start.p0(i64 16, ptr nonnull %6) #8
  store ptr %1, ptr %5, align 16, !tbaa !9
  %7 = getelementptr inbounds nuw i8, ptr %1, i64 4
  %8 = load i32, ptr %7, align 4, !tbaa !9
  %9 = and i32 %8, 64
  %.not = icmp eq i32 %9, 0
  br i1 %.not, label %10, label %13

10:                                               ; preds = %4
  %11 = load i32, ptr %1, align 4, !tbaa !4
  %12 = add i32 %11, 1
  store i32 %12, ptr %1, align 4, !tbaa !4
  br label %13

13:                                               ; preds = %4, %10
  %.sink = phi i32 [ 262, %10 ], [ 6, %4 ]
  %14 = getelementptr inbounds nuw i8, ptr %5, i64 8
  store i32 %.sink, ptr %14, align 8, !tbaa !9
  %15 = load i8, ptr getelementptr inbounds nuw (i8, ptr @ps_globals, i64 436), align 4, !tbaa !47, !range !58, !noundef !59
  %16 = trunc nuw i8 %15 to i1
  br i1 %16, label %ps_call_handler.exit.thread, label %17

ps_call_handler.exit.thread:                      ; preds = %13
  store i8 0, ptr getelementptr inbounds nuw (i8, ptr @ps_globals, i64 436), align 4, !tbaa !47
  tail call void (ptr, i32, ptr, ...) @php_error_docref(ptr noundef null, i32 noundef 2, ptr noundef nonnull @.str.4) #8
  br label %36

17:                                               ; preds = %13
  store i8 1, ptr getelementptr inbounds nuw (i8, ptr @ps_globals, i64 436), align 4, !tbaa !47
  %18 = call i32 @_call_user_function_impl(ptr noundef null, ptr noundef nonnull getelementptr inbounds nuw (i8, ptr @ps_globals, i64 224), ptr noundef nonnull %6, i32 noundef 1, ptr noundef nonnull %5, ptr noundef null) #8
  %19 = icmp eq i32 %18, -1
  br i1 %19, label %20, label %22

20:                                               ; preds = %17
  call void @zval_ptr_dtor(ptr noundef nonnull %6) #8
  %21 = getelementptr inbounds nuw i8, ptr %6, i64 8
  store i32 0, ptr %21, align 8, !tbaa !9
  br label %ps_call_handler.exit

22:                                               ; preds = %17
  %23 = getelementptr inbounds nuw i8, ptr %6, i64 8
  %24 = load i8, ptr %23, align 8, !tbaa !9
  %25 = icmp eq i8 %24, 0
  br i1 %25, label %26, label %ps_call_handler.exit

26:                                               ; preds = %22
  store i32 1, ptr %23, align 8, !tbaa !9
  br label %ps_call_handler.exit

ps_call_handler.exit:                             ; preds = %20, %22, %26
  store i8 0, ptr getelementptr inbounds nuw (i8, ptr @ps_globals, i64 436), align 4, !tbaa !47
  call void @zval_ptr_dtor(ptr noundef nonnull %5) #8
  %.phi.trans.insert = getelementptr inbounds nuw i8, ptr %6, i64 8
  %.pre = load i8, ptr %.phi.trans.insert, align 8, !tbaa !9
  switch i8 %.pre, label %35 [
    i8 0, label %36
    i8 6, label %27
  ]

27:                                               ; preds = %ps_call_handler.exit
  %28 = load ptr, ptr %6, align 8, !tbaa !9
  %29 = getelementptr inbounds nuw i8, ptr %28, i64 4
  %30 = load i32, ptr %29, align 4, !tbaa !9
  %31 = and i32 %30, 64
  %.not.i = icmp eq i32 %31, 0
  br i1 %.not.i, label %32, label %zend_string_copy.exit

32:                                               ; preds = %27
  %33 = load i32, ptr %28, align 4, !tbaa !4
  %34 = add i32 %33, 1
  store i32 %34, ptr %28, align 4, !tbaa !4
  br label %zend_string_copy.exit

zend_string_copy.exit:                            ; preds = %27, %32
  store ptr %28, ptr %2, align 8, !tbaa !61
  br label %35

35:                                               ; preds = %ps_call_handler.exit, %zend_string_copy.exit
  %.1 = phi i32 [ 0, %zend_string_copy.exit ], [ -1, %ps_call_handler.exit ]
  call void @zval_ptr_dtor(ptr noundef nonnull %6) #8
  br label %36

36:                                               ; preds = %ps_call_handler.exit.thread, %ps_call_handler.exit, %35
  %.0 = phi i32 [ -1, %ps_call_handler.exit ], [ %.1, %35 ], [ -1, %ps_call_handler.exit.thread ]
  call void @llvm.lifetime.end.p0(i64 16, ptr nonnull %6) #8
  call void @llvm.lifetime.end.p0(i64 16, ptr nonnull %5) #8
  ret i32 %.0
}